; Function Attrs: nofree norecurse nosync nounwind memory(argmem: readwrite) uwtable
define internal void @PredictorAdd5_SSE2(ptr noundef readonly captures(none) %0, ptr noundef readonly captures(none) %1, i32 noundef %2, ptr noalias noundef captures(none) %3) #3 {
  %5 = icmp sgt i32 %2, 0
  br i1 %5, label %.lr.ph.preheader, label %._crit_edge

.lr.ph.preheader:                                 ; preds = %4
  %wide.trip.count = zext nneg i32 %2 to i64
  %scevgep = getelementptr i8, ptr %3, i64 -4
  %load_initial = load i32, ptr %scevgep, align 4
  br label %.lr.ph

.lr.ph:                                           ; preds = %.lr.ph.preheader, %.lr.ph
  %store_forwarded = phi i32 [ %load_initial, %.lr.ph.preheader ], [ %40, %.lr.ph ]
  %indvars.iv = phi i64 [ 0, %.lr.ph.preheader ], [ %indvars.iv.next, %.lr.ph ]
  %6 = getelementptr i32, ptr %3, i64 %indvars.iv
  %7 = getelementptr inbounds nuw i32, ptr %1, i64 %indvars.iv
  %8 = load i32, ptr %7, align 4, !tbaa !7
  %9 = getelementptr inbounds nuw i8, ptr %7, i64 4
  %10 = load i32, ptr %9, align 4, !tbaa !7
  %11 = insertelement <4 x i32> <i32 poison, i32 0, i32 poison, i32 poison>, i32 %store_forwarded, i64 0
  %12 = bitcast <4 x i32> %11 to <16 x i8>
  %13 = shufflevector <16 x i8> %12, <16 x i8> <i8 0, i8 0, i8 0, i8 0, i8 0, i8 0, i8 0, i8 0, i8 poison, i8 poison, i8 poison, i8 poison, i8 poison, i8 poison, i8 poison, i8 poison>, <16 x i32> <i32 0, i32 16, i32 1, i32 17, i32 2, i32 18, i32 3, i32 19, i32 4, i32 20, i32 5, i32 21, i32 6, i32 22, i32 7, i32 23>
  %14 = insertelement <4 x i32> <i32 poison, i32 0, i32 poison, i32 poison>, i32 %10, i64 0
  %15 = bitcast <4 x i32> %14 to <16 x i8>
  %16 = shufflevector <16 x i8> %15, <16 x i8> <i8 0, i8 0, i8 0, i8 0, i8 0, i8 0, i8 0, i8 0, i8 poison, i8 poison, i8 poison, i8 poison, i8 poison, i8 poison, i8 poison, i8 poison>, <16 x i32> <i32 0, i32 16, i32 1, i32 17, i32 2, i32 18, i32 3, i32 19, i32 4, i32 20, i32 5, i32 21, i32 6, i32 22, i32 7, i32 23>
  %17 = bitcast <16 x i8> %16 to <8 x i16>
  %18 = bitcast <16 x i8> %13 to <8 x i16>
  %19 = add nuw nsw <8 x i16> %17, %18
  %20 = lshr <8 x i16> %19, splat (i16 1)
  %21 = insertelement <4 x i32> <i32 poison, i32 0, i32 poison, i32 poison>, i32 %8, i64 0
  %22 = bitcast <4 x i32> %21 to <16 x i8>
  %23 = shufflevector <16 x i8> %22, <16 x i8> <i8 0, i8 0, i8 0, i8 0, i8 0, i8 0, i8 0, i8 0, i8 poison, i8 poison, i8 poison, i8 poison, i8 poison, i8 poison, i8 poison, i8 poison>, <16 x i32> <i32 0, i32 16, i32 1, i32 17, i32 2, i32 18, i32 3, i32 19, i32 4, i32 20, i32 5, i32 21, i32 6, i32 22, i32 7, i32 23>
  %24 = bitcast <16 x i8> %23 to <8 x i16>
  %25 = add nuw nsw <8 x i16> %20, %24
  %26 = lshr <8 x i16> %25, splat (i16 1)
  %27 = tail call <16 x i8> @llvm.x86.sse2.packuswb.128(<8 x i16> %26, <8 x i16> poison)
  %28 = bitcast <16 x i8> %27 to <4 x i32>
  %29 = extractelement <4 x i32> %28, i64 0
  %30 = getelementptr inbounds nuw i32, ptr %0, i64 %indvars.iv
  %31 = load i32, ptr %30, align 4, !tbaa !7
  %32 = and i32 %31, -16711936
  %33 = and i32 %29, -16711936
  %34 = add i32 %33, %32
  %35 = and i32 %31, 16711935
  %36 = and i32 %29, 16711935
  %37 = add nuw nsw i32 %36, %35
  %38 = and i32 %34, -16711936
  %39 = and i32 %37, 16711935
  %40 = or disjoint i32 %38, %39
  store i32 %40, ptr %6, align 4, !tbaa !7
  %indvars.iv.next = add nuw nsw i64 %indvars.iv, 1
  %exitcond.not = icmp eq i64 %indvars.iv.next, %wide.trip.count
  br i1 %exitcond.not, label %._crit_edge, label %.lr.ph, !llvm.loop !16

._crit_edge:                                      ; preds = %.lr.ph, %4
  ret void
}